; Function Attrs: mustprogress nounwind uwtable
define void @_ZN5faiss17IndexPreTransformD2Ev(ptr noundef nonnull align 8 dereferenceable(73) initializes((0, 8)) %0) unnamed_addr #0 align 2 personality ptr @__gxx_personality_v0 {
  store ptr getelementptr inbounds nuw inrange(-16, 184) (i8, ptr @_ZTVN5faiss17IndexPreTransformE, i64 16), ptr %0, align 8, !tbaa !42
  %2 = getelementptr inbounds nuw i8, ptr %0, i64 72
  %3 = load i8, ptr %2, align 8, !tbaa !82, !range !22, !noundef !23
  %4 = trunc nuw i8 %3 to i1
  br i1 %4, label %.preheader, label %33

.preheader:                                       ; preds = %1
  %5 = getelementptr inbounds nuw i8, ptr %0, i64 40
  %6 = getelementptr inbounds nuw i8, ptr %0, i64 48
  %7 = load ptr, ptr %6, align 8, !tbaa !24
  %8 = load ptr, ptr %5, align 8, !tbaa !25
  %.not = icmp eq ptr %7, %8
  br i1 %.not, label %._crit_edge, label %.lr.ph

._crit_edge:                                      ; preds = %21, %.preheader
  %9 = getelementptr inbounds nuw i8, ptr %0, i64 64
  %10 = load ptr, ptr %9, align 8, !tbaa !4
  %11 = icmp eq ptr %10, null
  br i1 %11, label %33, label %29

.lr.ph:                                           ; preds = %.preheader, %21
  %12 = phi ptr [ %22, %21 ], [ %8, %.preheader ]
  %13 = phi ptr [ %23, %21 ], [ %7, %.preheader ]
  %indvars.iv = phi i64 [ %indvars.iv.next, %21 ], [ 0, %.preheader ]
  %14 = getelementptr inbounds nuw ptr, ptr %12, i64 %indvars.iv
  %15 = load ptr, ptr %14, align 8, !tbaa !26
  %16 = icmp eq ptr %15, null
  br i1 %16, label %21, label %17

17:                                               ; preds = %.lr.ph
  %18 = load ptr, ptr %15, align 8, !tbaa !42
  %19 = getelementptr inbounds nuw i8, ptr %18, i64 40
  %20 = load ptr, ptr %19, align 8
  tail call void %20(ptr noundef nonnull align 8 dereferenceable(17) %15) #20
  %.pre = load ptr, ptr %6, align 8, !tbaa !24
  %.pre8 = load ptr, ptr %5, align 8, !tbaa !25
  br label %21

21:                                               ; preds = %.lr.ph, %17
  %22 = phi ptr [ %12, %.lr.ph ], [ %.pre8, %17 ]
  %23 = phi ptr [ %13, %.lr.ph ], [ %.pre, %17 ]
  %indvars.iv.next = add nuw nsw i64 %indvars.iv, 1
  %24 = ptrtoint ptr %23 to i64
  %25 = ptrtoint ptr %22 to i64
  %26 = sub i64 %24, %25
  %27 = ashr exact i64 %26, 3
  %28 = icmp ugt i64 %27, %indvars.iv.next
  br i1 %28, label %.lr.ph, label %._crit_edge, !llvm.loop !86

29:                                               ; preds = %._crit_edge
  %30 = load ptr, ptr %10, align 8, !tbaa !42
  %31 = getelementptr inbounds nuw i8, ptr %30, i64 8
  %32 = load ptr, ptr %31, align 8
  tail call void %32(ptr noundef nonnull align 8 dereferenceable(36) %10) #20
  br label %33

33:                                               ; preds = %._crit_edge, %29, %1
  %34 = getelementptr inbounds nuw i8, ptr %0, i64 40
  %35 = load ptr, ptr %34, align 8, !tbaa !25
  %.not.i.i.i = icmp eq ptr %35, null
  br i1 %.not.i.i.i, label %_ZNSt6vectorIPN5faiss15VectorTransformESaIS2_EED2Ev.exit, label %36

36:                                               ; preds = %33
  %37 = getelementptr inbounds nuw i8, ptr %0, i64 56
  %38 = load ptr, ptr %37, align 8, !tbaa !83
  %39 = ptrtoint ptr %38 to i64
  %40 = ptrtoint ptr %35 to i64
  %41 = sub i64 %39, %40
  tail call void @_ZdlPvm(ptr noundef nonnull %35, i64 noundef %41) #21
  br label %_ZNSt6vectorIPN5faiss15VectorTransformESaIS2_EED2Ev.exit

_ZNSt6vectorIPN5faiss15VectorTransformESaIS2_EED2Ev.exit: ; preds = %33, %36
  tail call void @_ZN5faiss5IndexD2Ev(ptr noundef nonnull align 8 dereferenceable(36) %0) #20
  ret void
}